target datalayout = "e-m:e-p270:32:32-p271:32:32-p272:64:64-i64:64-i128:128-f80:128-n8:16:32:64-S128"
target triple = "x86_64-unknown-linux-gnu"

%"class.std::shared_ptr" = type { %"class.std::__shared_ptr" }
%"class.std::__shared_ptr" = type { ptr, %"class.std::__shared_count" }
%"class.std::__shared_count" = type { ptr }
%"class.std::shared_ptr.3" = type { %"class.std::__shared_ptr.4" }
%"class.std::__shared_ptr.4" = type { ptr, %"class.std::__shared_count" }
%"class.std::vector.9" = type { %"struct.std::_Vector_base.10" }
%"struct.std::_Vector_base.10" = type { %"struct.std::_Vector_base<std::shared_ptr<arrow::Buffer>, std::allocator<std::shared_ptr<arrow::Buffer>>>::_Vector_impl" }
%"struct.std::_Vector_base<std::shared_ptr<arrow::Buffer>, std::allocator<std::shared_ptr<arrow::Buffer>>>::_Vector_impl" = type { %"struct.std::_Vector_base<std::shared_ptr<arrow::Buffer>, std::allocator<std::shared_ptr<arrow::Buffer>>>::_Vector_impl_data" }
%"struct.std::_Vector_base<std::shared_ptr<arrow::Buffer>, std::allocator<std::shared_ptr<arrow::Buffer>>>::_Vector_impl_data" = type { ptr, ptr, ptr }
%"struct.arrow::ArrayData" = type { %"class.std::shared_ptr.3", i64, %"struct.std::atomic.14", i64, %"class.std::vector.9", %"class.std::vector.16", %"class.std::shared_ptr" }
%"struct.std::atomic.14" = type { %"struct.std::__atomic_base.15" }
%"struct.std::__atomic_base.15" = type { i64 }
%"class.std::vector.16" = type { %"struct.std::_Vector_base.17" }
%"struct.std::_Vector_base.17" = type { %"struct.std::_Vector_base<std::shared_ptr<arrow::ArrayData>, std::allocator<std::shared_ptr<arrow::ArrayData>>>::_Vector_impl" }
%"struct.std::_Vector_base<std::shared_ptr<arrow::ArrayData>, std::allocator<std::shared_ptr<arrow::ArrayData>>>::_Vector_impl" = type { %"struct.std::_Vector_base<std::shared_ptr<arrow::ArrayData>, std::allocator<std::shared_ptr<arrow::ArrayData>>>::_Vector_impl_data" }
%"struct.std::_Vector_base<std::shared_ptr<arrow::ArrayData>, std::allocator<std::shared_ptr<arrow::ArrayData>>>::_Vector_impl_data" = type { ptr, ptr, ptr }
%"class.arrow::DataType" = type { %"class.arrow::detail::Fingerprintable", %"class.std::enable_shared_from_this", i32, %"class.std::vector" }
%"class.arrow::detail::Fingerprintable" = type { ptr, %"struct.std::atomic", %"struct.std::atomic" }
%"struct.std::atomic" = type { %"struct.std::__atomic_base" }
%"struct.std::__atomic_base" = type { ptr }
%"class.std::enable_shared_from_this" = type { %"class.std::weak_ptr" }
%"class.std::weak_ptr" = type { %"class.std::__weak_ptr" }
%"class.std::__weak_ptr" = type { ptr, %"class.std::__weak_count" }
%"class.std::__weak_count" = type { ptr }
%"class.std::vector" = type { %"struct.std::_Vector_base" }
%"struct.std::_Vector_base" = type { %"struct.std::_Vector_base<std::shared_ptr<arrow::Field>, std::allocator<std::shared_ptr<arrow::Field>>>::_Vector_impl" }
%"struct.std::_Vector_base<std::shared_ptr<arrow::Field>, std::allocator<std::shared_ptr<arrow::Field>>>::_Vector_impl" = type { %"struct.std::_Vector_base<std::shared_ptr<arrow::Field>, std::allocator<std::shared_ptr<arrow::Field>>>::_Vector_impl_data" }
%"struct.std::_Vector_base<std::shared_ptr<arrow::Field>, std::allocator<std::shared_ptr<arrow::Field>>>::_Vector_impl_data" = type { ptr, ptr, ptr }
%"class.arrow::Status" = type { ptr }

@.str.17 = private unnamed_addr constant [39 x i8] c"Expected one child array for map array\00", align 1
@.str.18 = private unnamed_addr constant [46 x i8] c"Map array child array should have struct type\00", align 1
@.str.19 = private unnamed_addr constant [43 x i8] c"Map array child array should have no nulls\00", align 1
@.str.20 = private unnamed_addr constant [45 x i8] c"Map array child array should have two fields\00", align 1
@.str.21 = private unnamed_addr constant [42 x i8] c"Map array keys array should have no nulls\00", align 1

; Function Attrs: mustprogress nounwind uwtable
define linkonce_odr noundef ptr @_ZNKSt12__shared_ptrIN5arrow8DataTypeELN9__gnu_cxx12_Lock_policyE2EE3getEv(ptr noundef nonnull align 8 dereferenceable(16) %this) #1 comdat align 2 {
entry:
  %this.addr = alloca ptr, align 8
  store ptr %this, ptr %this.addr, align 8
  %this1 = load ptr, ptr %this.addr, align 8
  %_M_ptr = getelementptr inbounds %"class.std::__shared_ptr.4", ptr %this1, i32 0, i32 0
  %0 = load ptr, ptr %_M_ptr, align 8
  ret ptr %0
}

; Function Attrs: mustprogress nounwind uwtable
define linkonce_odr noundef ptr @_ZNKSt12__shared_ptrIN5arrow9ArrayDataELN9__gnu_cxx12_Lock_policyE2EE3getEv(ptr noundef nonnull align 8 dereferenceable(16) %this) #1 comdat align 2 {
entry:
  %this.addr = alloca ptr, align 8
  store ptr %this, ptr %this.addr, align 8
  %this1 = load ptr, ptr %this.addr, align 8
  %_M_ptr = getelementptr inbounds %"class.std::__shared_ptr", ptr %this1, i32 0, i32 0
  %0 = load ptr, ptr %_M_ptr, align 8
  ret ptr %0
}

; Function Attrs: mustprogress nounwind uwtable
define linkonce_odr void @_ZN5arrow6StatusC2Ev(ptr noundef nonnull align 8 dereferenceable(8) %this) unnamed_addr #1 comdat align 2 {
entry:
  %this.addr = alloca ptr, align 8
  store ptr %this, ptr %this.addr, align 8
  %this1 = load ptr, ptr %this.addr, align 8
  %state_ = getelementptr inbounds %"class.arrow::Status", ptr %this1, i32 0, i32 0
  store ptr null, ptr %state_, align 8
  ret void
}

; Function Attrs: mustprogress nounwind uwtable
define linkonce_odr noundef i32 @_ZStanSt12memory_orderSt23__memory_order_modifier(i32 noundef %__m, i32 noundef %__mod) #1 comdat {
entry:
  %__m.addr = alloca i32, align 4
  %__mod.addr = alloca i32, align 4
  store i32 %__m, ptr %__m.addr, align 4
  store i32 %__mod, ptr %__mod.addr, align 4
  %0 = load i32, ptr %__m.addr, align 4
  %1 = load i32, ptr %__mod.addr, align 4
  %and = and i32 %0, %1
  ret i32 %and
}

; Function Attrs: mustprogress nounwind uwtable
define linkonce_odr noundef ptr @_ZNKSt19__shared_ptr_accessIN5arrow8DataTypeELN9__gnu_cxx12_Lock_policyE2ELb0ELb0EE6_M_getEv(ptr noundef nonnull align 1 dereferenceable(1) %this) #1 comdat align 2 {
entry:
  %this.addr = alloca ptr, align 8
  store ptr %this, ptr %this.addr, align 8
  %this1 = load ptr, ptr %this.addr, align 8
  %call = call noundef ptr @_ZNKSt12__shared_ptrIN5arrow8DataTypeELN9__gnu_cxx12_Lock_policyE2EE3getEv(ptr noundef nonnull align 8 dereferenceable(16) %this1) #12
  ret ptr %call
}

; Function Attrs: mustprogress nounwind uwtable
define linkonce_odr noundef ptr @_ZNKSt19__shared_ptr_accessIN5arrow9ArrayDataELN9__gnu_cxx12_Lock_policyE2ELb0ELb0EE6_M_getEv(ptr noundef nonnull align 1 dereferenceable(1) %this) #1 comdat align 2 {
entry:
  %this.addr = alloca ptr, align 8
  store ptr %this, ptr %this.addr, align 8
  %this1 = load ptr, ptr %this.addr, align 8
  %call = call noundef ptr @_ZNKSt12__shared_ptrIN5arrow9ArrayDataELN9__gnu_cxx12_Lock_policyE2EE3getEv(ptr noundef nonnull align 8 dereferenceable(16) %this1) #12
  ret ptr %call
}

; Function Attrs: mustprogress nounwind uwtable
define linkonce_odr void @_ZN5arrow6Status2OKEv(ptr noalias sret(%"class.arrow::Status") align 8 %agg.result) #1 comdat align 2 {
entry:
  %result.ptr = alloca ptr, align 8
  store ptr %agg.result, ptr %result.ptr, align 8
  call void @_ZN5arrow6StatusC2Ev(ptr noundef nonnull align 8 dereferenceable(8) %agg.result) #12
  ret void
}

; Function Attrs: mustprogress uwtable
define linkonce_odr void @_ZN5arrow6Status7InvalidIJRA42_KcEEES0_DpOT_(ptr noalias sret(%"class.arrow::Status") align 8 %agg.result, ptr noundef nonnull align 1 dereferenceable(42) %args) #0 comdat align 2 {
entry:
  %result.ptr = alloca ptr, align 8
  %args.addr = alloca ptr, align 8
  store ptr %agg.result, ptr %result.ptr, align 8
  store ptr %args, ptr %args.addr, align 8
  %0 = load ptr, ptr %args.addr, align 8
  call void @_ZN5arrow6Status8FromArgsIJRA42_KcEEES0_NS_10StatusCodeEDpOT_(ptr sret(%"class.arrow::Status") align 8 %agg.result, i8 noundef signext 4, ptr noundef nonnull align 1 dereferenceable(42) %0)
  ret void
}

; Function Attrs: mustprogress nounwind uwtable
define linkonce_odr noundef nonnull align 8 dereferenceable(16) ptr @_ZNSt6vectorISt10shared_ptrIN5arrow9ArrayDataEESaIS3_EEixEm(ptr noundef nonnull align 8 dereferenceable(24) %this, i64 noundef %__n) #1 comdat align 2 {
entry:
  %this.addr = alloca ptr, align 8
  %__n.addr = alloca i64, align 8
  store ptr %this, ptr %this.addr, align 8
  store i64 %__n, ptr %__n.addr, align 8
  %this1 = load ptr, ptr %this.addr, align 8
  %_M_impl = getelementptr inbounds %"struct.std::_Vector_base.17", ptr %this1, i32 0, i32 0
  %_M_start = getelementptr inbounds %"struct.std::_Vector_base<std::shared_ptr<arrow::ArrayData>, std::allocator<std::shared_ptr<arrow::ArrayData>>>::_Vector_impl_data", ptr %_M_impl, i32 0, i32 0
  %0 = load ptr, ptr %_M_start, align 8
  %1 = load i64, ptr %__n.addr, align 8
  %add.ptr = getelementptr inbounds %"class.std::shared_ptr", ptr %0, i64 %1
  ret ptr %add.ptr
}

; Function Attrs: mustprogress uwtable
define linkonce_odr void @_ZN5arrow6Status7InvalidIJRA45_KcEEES0_DpOT_(ptr noalias sret(%"class.arrow::Status") align 8 %agg.result, ptr noundef nonnull align 1 dereferenceable(45) %args) #0 comdat align 2 {
entry:
  %result.ptr = alloca ptr, align 8
  %args.addr = alloca ptr, align 8
  store ptr %agg.result, ptr %result.ptr, align 8
  store ptr %args, ptr %args.addr, align 8
  %0 = load ptr, ptr %args.addr, align 8
  call void @_ZN5arrow6Status8FromArgsIJRA45_KcEEES0_NS_10StatusCodeEDpOT_(ptr sret(%"class.arrow::Status") align 8 %agg.result, i8 noundef signext 4, ptr noundef nonnull align 1 dereferenceable(45) %0)
  ret void
}

; Function Attrs: mustprogress uwtable
define linkonce_odr void @_ZN5arrow6Status7InvalidIJRA43_KcEEES0_DpOT_(ptr noalias sret(%"class.arrow::Status") align 8 %agg.result, ptr noundef nonnull align 1 dereferenceable(43) %args) #0 comdat align 2 {
entry:
  %result.ptr = alloca ptr, align 8
  %args.addr = alloca ptr, align 8
  store ptr %agg.result, ptr %result.ptr, align 8
  store ptr %args, ptr %args.addr, align 8
  %0 = load ptr, ptr %args.addr, align 8
  call void @_ZN5arrow6Status8FromArgsIJRA43_KcEEES0_NS_10StatusCodeEDpOT_(ptr sret(%"class.arrow::Status") align 8 %agg.result, i8 noundef signext 4, ptr noundef nonnull align 1 dereferenceable(43) %0)
  ret void
}

; Function Attrs: mustprogress nounwind uwtable
define linkonce_odr noundef i64 @_ZNKSt13__atomic_baseIlEcvlEv(ptr noundef nonnull align 8 dereferenceable(8) %this) #1 comdat align 2 {
entry:
  %this.addr.i = alloca ptr, align 8
  %__m.addr.i = alloca i32, align 4
  %__b.i = alloca i32, align 4
  %atomic-temp.i = alloca i64, align 8
  %this.addr = alloca ptr, align 8
  store ptr %this, ptr %this.addr, align 8
  %this1 = load ptr, ptr %this.addr, align 8
  store ptr %this1, ptr %this.addr.i, align 8
  store i32 5, ptr %__m.addr.i, align 4
  %this1.i = load ptr, ptr %this.addr.i, align 8
  %0 = load i32, ptr %__m.addr.i, align 4
  %call.i = call noundef i32 @_ZStanSt12memory_orderSt23__memory_order_modifier(i32 noundef %0, i32 noundef 65535)
  store i32 %call.i, ptr %__b.i, align 4
  %1 = load i32, ptr %__m.addr.i, align 4
  switch i32 %1, label %monotonic.i [
    i32 1, label %acquire.i
    i32 2, label %acquire.i
    i32 5, label %seqcst.i
  ]

monotonic.i:                                      ; preds = %entry
  %2 = load atomic i64, ptr %this1.i monotonic, align 8
  store i64 %2, ptr %atomic-temp.i, align 8
  br label %_ZNKSt13__atomic_baseIlE4loadESt12memory_order.exit

acquire.i:                                        ; preds = %entry, %entry
  %3 = load atomic i64, ptr %this1.i acquire, align 8
  store i64 %3, ptr %atomic-temp.i, align 8
  br label %_ZNKSt13__atomic_baseIlE4loadESt12memory_order.exit

seqcst.i:                                         ; preds = %entry
  %4 = load atomic i64, ptr %this1.i seq_cst, align 8
  store i64 %4, ptr %atomic-temp.i, align 8
  br label %_ZNKSt13__atomic_baseIlE4loadESt12memory_order.exit

_ZNKSt13__atomic_baseIlE4loadESt12memory_order.exit: ; preds = %seqcst.i, %acquire.i, %monotonic.i
  %5 = load i64, ptr %atomic-temp.i, align 8
  ret i64 %5
}

; Function Attrs: mustprogress uwtable
define linkonce_odr void @_ZN5arrow6Status7InvalidIJRA46_KcEEES0_DpOT_(ptr noalias sret(%"class.arrow::Status") align 8 %agg.result, ptr noundef nonnull align 1 dereferenceable(46) %args) #0 comdat align 2 {
entry:
  %result.ptr = alloca ptr, align 8
  %args.addr = alloca ptr, align 8
  store ptr %agg.result, ptr %result.ptr, align 8
  store ptr %args, ptr %args.addr, align 8
  %0 = load ptr, ptr %args.addr, align 8
  call void @_ZN5arrow6Status8FromArgsIJRA46_KcEEES0_NS_10StatusCodeEDpOT_(ptr sret(%"class.arrow::Status") align 8 %agg.result, i8 noundef signext 4, ptr noundef nonnull align 1 dereferenceable(46) %0)
  ret void
}

; Function Attrs: mustprogress nounwind uwtable
define linkonce_odr noundef i32 @_ZNK5arrow8DataType2idEv(ptr noundef nonnull align 8 dereferenceable(72) %this) #1 comdat align 2 {
entry:
  %this.addr = alloca ptr, align 8
  store ptr %this, ptr %this.addr, align 8
  %this1 = load ptr, ptr %this.addr, align 8
  %id_ = getelementptr inbounds %"class.arrow::DataType", ptr %this1, i32 0, i32 2
  %0 = load i32, ptr %id_, align 8
  ret i32 %0
}

; Function Attrs: mustprogress nounwind uwtable
define linkonce_odr noundef ptr @_ZNKSt19__shared_ptr_accessIN5arrow8DataTypeELN9__gnu_cxx12_Lock_policyE2ELb0ELb0EEptEv(ptr noundef nonnull align 1 dereferenceable(1) %this) #1 comdat align 2 {
entry:
  %this.addr = alloca ptr, align 8
  store ptr %this, ptr %this.addr, align 8
  %this1 = load ptr, ptr %this.addr, align 8
  %call = call noundef ptr @_ZNKSt19__shared_ptr_accessIN5arrow8DataTypeELN9__gnu_cxx12_Lock_policyE2ELb0ELb0EE6_M_getEv(ptr noundef nonnull align 1 dereferenceable(1) %this1) #12
  ret ptr %call
}

; Function Attrs: mustprogress nounwind uwtable
define linkonce_odr noundef ptr @_ZNKSt19__shared_ptr_accessIN5arrow9ArrayDataELN9__gnu_cxx12_Lock_policyE2ELb0ELb0EEptEv(ptr noundef nonnull align 1 dereferenceable(1) %this) #1 comdat align 2 {
entry:
  %this.addr = alloca ptr, align 8
  store ptr %this, ptr %this.addr, align 8
  %this1 = load ptr, ptr %this.addr, align 8
  %call = call noundef ptr @_ZNKSt19__shared_ptr_accessIN5arrow9ArrayDataELN9__gnu_cxx12_Lock_policyE2ELb0ELb0EE6_M_getEv(ptr noundef nonnull align 1 dereferenceable(1) %this1) #12
  ret ptr %call
}

; Function Attrs: mustprogress nounwind uwtable
define linkonce_odr noundef nonnull align 8 dereferenceable(16) ptr @_ZNKSt6vectorISt10shared_ptrIN5arrow9ArrayDataEESaIS3_EEixEm(ptr noundef nonnull align 8 dereferenceable(24) %this, i64 noundef %__n) #1 comdat align 2 {
entry:
  %this.addr = alloca ptr, align 8
  %__n.addr = alloca i64, align 8
  store ptr %this, ptr %this.addr, align 8
  store i64 %__n, ptr %__n.addr, align 8
  %this1 = load ptr, ptr %this.addr, align 8
  %_M_impl = getelementptr inbounds %"struct.std::_Vector_base.17", ptr %this1, i32 0, i32 0
  %_M_start = getelementptr inbounds %"struct.std::_Vector_base<std::shared_ptr<arrow::ArrayData>, std::allocator<std::shared_ptr<arrow::ArrayData>>>::_Vector_impl_data", ptr %_M_impl, i32 0, i32 0
  %0 = load ptr, ptr %_M_start, align 8
  %1 = load i64, ptr %__n.addr, align 8
  %add.ptr = getelementptr inbounds %"class.std::shared_ptr", ptr %0, i64 %1
  ret ptr %add.ptr
}

; Function Attrs: mustprogress uwtable
define linkonce_odr void @_ZN5arrow6Status7InvalidIJRA39_KcEEES0_DpOT_(ptr noalias sret(%"class.arrow::Status") align 8 %agg.result, ptr noundef nonnull align 1 dereferenceable(39) %args) #0 comdat align 2 {
entry:
  %result.ptr = alloca ptr, align 8
  %args.addr = alloca ptr, align 8
  store ptr %agg.result, ptr %result.ptr, align 8
  store ptr %args, ptr %args.addr, align 8
  %0 = load ptr, ptr %args.addr, align 8
  call void @_ZN5arrow6Status8FromArgsIJRA39_KcEEES0_NS_10StatusCodeEDpOT_(ptr sret(%"class.arrow::Status") align 8 %agg.result, i8 noundef signext 4, ptr noundef nonnull align 1 dereferenceable(39) %0)
  ret void
}

; Function Attrs: mustprogress nounwind uwtable
define linkonce_odr noundef i64 @_ZNKSt6vectorISt10shared_ptrIN5arrow9ArrayDataEESaIS3_EE4sizeEv(ptr noundef nonnull align 8 dereferenceable(24) %this) #1 comdat align 2 {
entry:
  %this.addr = alloca ptr, align 8
  store ptr %this, ptr %this.addr, align 8
  %this1 = load ptr, ptr %this.addr, align 8
  %_M_impl = getelementptr inbounds %"struct.std::_Vector_base.17", ptr %this1, i32 0, i32 0
  %_M_finish = getelementptr inbounds %"struct.std::_Vector_base<std::shared_ptr<arrow::ArrayData>, std::allocator<std::shared_ptr<arrow::ArrayData>>>::_Vector_impl_data", ptr %_M_impl, i32 0, i32 1
  %0 = load ptr, ptr %_M_finish, align 8
  %_M_impl2 = getelementptr inbounds %"struct.std::_Vector_base.17", ptr %this1, i32 0, i32 0
  %_M_start = getelementptr inbounds %"struct.std::_Vector_base<std::shared_ptr<arrow::ArrayData>, std::allocator<std::shared_ptr<arrow::ArrayData>>>::_Vector_impl_data", ptr %_M_impl2, i32 0, i32 0
  %1 = load ptr, ptr %_M_start, align 8
  %sub.ptr.lhs.cast = ptrtoint ptr %0 to i64
  %sub.ptr.rhs.cast = ptrtoint ptr %1 to i64
  %sub.ptr.sub = sub i64 %sub.ptr.lhs.cast, %sub.ptr.rhs.cast
  %sub.ptr.div = sdiv exact i64 %sub.ptr.sub, 16
  ret i64 %sub.ptr.div
}

; Function Attrs: mustprogress uwtable
define void @_ZN5arrow8MapArray17ValidateChildDataERKSt6vectorISt10shared_ptrINS_9ArrayDataEESaIS4_EE(ptr noalias sret(%"class.arrow::Status") align 8 %agg.result, ptr noundef nonnull align 8 dereferenceable(24) %child_data) #0 align 2 {
entry:
  %result.ptr = alloca ptr, align 8
  %child_data.addr = alloca ptr, align 8
  %pair_data = alloca ptr, align 8
  store ptr %agg.result, ptr %result.ptr, align 8
  store ptr %child_data, ptr %child_data.addr, align 8
  %0 = load ptr, ptr %child_data.addr, align 8
  %call = call noundef i64 @_ZNKSt6vectorISt10shared_ptrIN5arrow9ArrayDataEESaIS3_EE4sizeEv(ptr noundef nonnull align 8 dereferenceable(24) %0) #12
  %cmp = icmp ne i64 %call, 1
  br i1 %cmp, label %if.then, label %if.end

if.then:                                          ; preds = %entry
  call void @_ZN5arrow6Status7InvalidIJRA39_KcEEES0_DpOT_(ptr sret(%"class.arrow::Status") align 8 %agg.result, ptr noundef nonnull align 1 dereferenceable(39) @.str.17)
  br label %return

if.end:                                           ; preds = %entry
  %1 = load ptr, ptr %child_data.addr, align 8
  %call1 = call noundef nonnull align 8 dereferenceable(16) ptr @_ZNKSt6vectorISt10shared_ptrIN5arrow9ArrayDataEESaIS3_EEixEm(ptr noundef nonnull align 8 dereferenceable(24) %1, i64 noundef 0) #12
  store ptr %call1, ptr %pair_data, align 8
  %2 = load ptr, ptr %pair_data, align 8
  %call2 = call noundef ptr @_ZNKSt19__shared_ptr_accessIN5arrow9ArrayDataELN9__gnu_cxx12_Lock_policyE2ELb0ELb0EEptEv(ptr noundef nonnull align 1 dereferenceable(1) %2) #12
  %type = getelementptr inbounds %"struct.arrow::ArrayData", ptr %call2, i32 0, i32 0
  %call3 = call noundef ptr @_ZNKSt19__shared_ptr_accessIN5arrow8DataTypeELN9__gnu_cxx12_Lock_policyE2ELb0ELb0EEptEv(ptr noundef nonnull align 1 dereferenceable(1) %type) #12
  %call4 = call noundef i32 @_ZNK5arrow8DataType2idEv(ptr noundef nonnull align 8 dereferenceable(72) %call3)
  %cmp5 = icmp ne i32 %call4, 26
  br i1 %cmp5, label %if.then6, label %if.end7

if.then6:                                         ; preds = %if.end
  call void @_ZN5arrow6Status7InvalidIJRA46_KcEEES0_DpOT_(ptr sret(%"class.arrow::Status") align 8 %agg.result, ptr noundef nonnull align 1 dereferenceable(46) @.str.18)
  br label %return

if.end7:                                          ; preds = %if.end
  %3 = load ptr, ptr %pair_data, align 8
  %call8 = call noundef ptr @_ZNKSt19__shared_ptr_accessIN5arrow9ArrayDataELN9__gnu_cxx12_Lock_policyE2ELb0ELb0EEptEv(ptr noundef nonnull align 1 dereferenceable(1) %3) #12
  %null_count = getelementptr inbounds %"struct.arrow::ArrayData", ptr %call8, i32 0, i32 2
  %call9 = call noundef i64 @_ZNKSt13__atomic_baseIlEcvlEv(ptr noundef nonnull align 8 dereferenceable(8) %null_count) #12
  %cmp10 = icmp ne i64 %call9, 0
  br i1 %cmp10, label %if.then11, label %if.end12

if.then11:                                        ; preds = %if.end7
  call void @_ZN5arrow6Status7InvalidIJRA43_KcEEES0_DpOT_(ptr sret(%"class.arrow::Status") align 8 %agg.result, ptr noundef nonnull align 1 dereferenceable(43) @.str.19)
  br label %return

if.end12:                                         ; preds = %if.end7
  %4 = load ptr, ptr %pair_data, align 8
  %call13 = call noundef ptr @_ZNKSt19__shared_ptr_accessIN5arrow9ArrayDataELN9__gnu_cxx12_Lock_policyE2ELb0ELb0EEptEv(ptr noundef nonnull align 1 dereferenceable(1) %4) #12
  %child_data14 = getelementptr inbounds %"struct.arrow::ArrayData", ptr %call13, i32 0, i32 5
  %call15 = call noundef i64 @_ZNKSt6vectorISt10shared_ptrIN5arrow9ArrayDataEESaIS3_EE4sizeEv(ptr noundef nonnull align 8 dereferenceable(24) %child_data14) #12
  %cmp16 = icmp ne i64 %call15, 2
  br i1 %cmp16, label %if.then17, label %if.end18

if.then17:                                        ; preds = %if.end12
  call void @_ZN5arrow6Status7InvalidIJRA45_KcEEES0_DpOT_(ptr sret(%"class.arrow::Status") align 8 %agg.result, ptr noundef nonnull align 1 dereferenceable(45) @.str.20)
  br label %return

if.end18:                                         ; preds = %if.end12
  %5 = load ptr, ptr %pair_data, align 8
  %call19 = call noundef ptr @_ZNKSt19__shared_ptr_accessIN5arrow9ArrayDataELN9__gnu_cxx12_Lock_policyE2ELb0ELb0EEptEv(ptr noundef nonnull align 1 dereferenceable(1) %5) #12
  %child_data20 = getelementptr inbounds %"struct.arrow::ArrayData", ptr %call19, i32 0, i32 5
  %call21 = call noundef nonnull align 8 dereferenceable(16) ptr @_ZNSt6vectorISt10shared_ptrIN5arrow9ArrayDataEESaIS3_EEixEm(ptr noundef nonnull align 8 dereferenceable(24) %child_data20, i64 noundef 0) #12
  %call22 = call noundef ptr @_ZNKSt19__shared_ptr_accessIN5arrow9ArrayDataELN9__gnu_cxx12_Lock_policyE2ELb0ELb0EEptEv(ptr noundef nonnull align 1 dereferenceable(1) %call21) #12
  %null_count23 = getelementptr inbounds %"struct.arrow::ArrayData", ptr %call22, i32 0, i32 2
  %call24 = call noundef i64 @_ZNKSt13__atomic_baseIlEcvlEv(ptr noundef nonnull align 8 dereferenceable(8) %null_count23) #12
  %cmp25 = icmp ne i64 %call24, 0
  br i1 %cmp25, label %if.then26, label %if.end27

if.then26:                                        ; preds = %if.end18
  call void @_ZN5arrow6Status7InvalidIJRA42_KcEEES0_DpOT_(ptr sret(%"class.arrow::Status") align 8 %agg.result, ptr noundef nonnull align 1 dereferenceable(42) @.str.21)
  br label %return

if.end27:                                         ; preds = %if.end18
  call void @_ZN5arrow6Status2OKEv(ptr sret(%"class.arrow::Status") align 8 %agg.result)
  br label %return

return:                                           ; preds = %if.end27, %if.then26, %if.then17, %if.then11, %if.then6, %if.then
  ret void
}