; Function Attrs: mustprogress uwtable
define void @_ZN5arrow8MapArray17ValidateChildDataERKSt6vectorISt10shared_ptrINS_9ArrayDataEESaIS4_EE(ptr noalias sret(%"class.arrow::Status") align 8 %agg.result, ptr nocapture noundef nonnull readonly align 8 dereferenceable(24) %child_data) local_unnamed_addr #0 align 2 {
entry:
  %_M_finish.i = getelementptr inbounds i8, ptr %child_data, i64 8
  %0 = load ptr, ptr %_M_finish.i, align 8
  %1 = load ptr, ptr %child_data, align 8
  %sub.ptr.lhs.cast.i = ptrtoint ptr %0 to i64
  %sub.ptr.rhs.cast.i = ptrtoint ptr %1 to i64
  %sub.ptr.sub.i = sub i64 %sub.ptr.lhs.cast.i, %sub.ptr.rhs.cast.i
  %cmp.not = icmp eq i64 %sub.ptr.sub.i, 16
  br i1 %cmp.not, label %if.end, label %if.then

if.then:                                          ; preds = %entry
  tail call void @_ZN5arrow6Status8FromArgsIJRA39_KcEEES0_NS_10StatusCodeEDpOT_(ptr sret(%"class.arrow::Status") align 8 %agg.result, i8 noundef signext 4, ptr noundef nonnull align 1 dereferenceable(39) @.str.17)
  br label %return

if.end:                                           ; preds = %entry
  %2 = load ptr, ptr %1, align 8
  %3 = load ptr, ptr %2, align 8
  %id_.i = getelementptr inbounds i8, ptr %3, i64 40
  %4 = load i32, ptr %id_.i, align 8
  %cmp5.not = icmp eq i32 %4, 26
  br i1 %cmp5.not, label %if.end7, label %if.then6

if.then6:                                         ; preds = %if.end
  tail call void @_ZN5arrow6Status8FromArgsIJRA46_KcEEES0_NS_10StatusCodeEDpOT_(ptr sret(%"class.arrow::Status") align 8 %agg.result, i8 noundef signext 4, ptr noundef nonnull align 1 dereferenceable(46) @.str.18)
  br label %return

if.end7:                                          ; preds = %if.end
  %null_count = getelementptr inbounds i8, ptr %2, i64 24
  %5 = load atomic i64, ptr %null_count seq_cst, align 8
  %cmp10.not = icmp eq i64 %5, 0
  br i1 %cmp10.not, label %if.end12, label %if.then11

if.then11:                                        ; preds = %if.end7
  tail call void @_ZN5arrow6Status8FromArgsIJRA43_KcEEES0_NS_10StatusCodeEDpOT_(ptr sret(%"class.arrow::Status") align 8 %agg.result, i8 noundef signext 4, ptr noundef nonnull align 1 dereferenceable(43) @.str.19)
  br label %return

if.end12:                                         ; preds = %if.end7
  %6 = load ptr, ptr %1, align 8
  %child_data14 = getelementptr inbounds i8, ptr %6, i64 64
  %_M_finish.i5 = getelementptr inbounds i8, ptr %6, i64 72
  %7 = load ptr, ptr %_M_finish.i5, align 8
  %8 = load ptr, ptr %child_data14, align 8
  %sub.ptr.lhs.cast.i6 = ptrtoint ptr %7 to i64
  %sub.ptr.rhs.cast.i7 = ptrtoint ptr %8 to i64
  %sub.ptr.sub.i8 = sub i64 %sub.ptr.lhs.cast.i6, %sub.ptr.rhs.cast.i7
  %cmp16.not = icmp eq i64 %sub.ptr.sub.i8, 32
  br i1 %cmp16.not, label %if.end18, label %if.then17

if.then17:                                        ; preds = %if.end12
  tail call void @_ZN5arrow6Status8FromArgsIJRA45_KcEEES0_NS_10StatusCodeEDpOT_(ptr sret(%"class.arrow::Status") align 8 %agg.result, i8 noundef signext 4, ptr noundef nonnull align 1 dereferenceable(45) @.str.20)
  br label %return

if.end18:                                         ; preds = %if.end12
  %9 = load ptr, ptr %8, align 8
  %null_count23 = getelementptr inbounds i8, ptr %9, i64 24
  %10 = load atomic i64, ptr %null_count23 seq_cst, align 8
  %cmp25.not = icmp eq i64 %10, 0
  br i1 %cmp25.not, label %if.end27, label %if.then26

if.then26:                                        ; preds = %if.end18
  tail call void @_ZN5arrow6Status8FromArgsIJRA42_KcEEES0_NS_10StatusCodeEDpOT_(ptr sret(%"class.arrow::Status") align 8 %agg.result, i8 noundef signext 4, ptr noundef nonnull align 1 dereferenceable(42) @.str.21)
  br label %return

if.end27:                                         ; preds = %if.end18
  store ptr null, ptr %agg.result, align 8, !alias.scope !357
  br label %return

return:                                           ; preds = %if.end27, %if.then26, %if.then17, %if.then11, %if.then6, %if.then
  ret void
}